target datalayout = "e-m:e-p270:32:32-p271:32:32-p272:64:64-i64:64-i128:128-f80:128-n8:16:32:64-S128"
target triple = "x86_64-pc-linux-gnu"

%struct.Vec_Int_t_ = type { i32, i32, ptr }
%struct.Abc_Ntk_t_ = type { i32, i32, ptr, ptr, ptr, ptr, ptr, ptr, ptr, ptr, ptr, ptr, ptr, [11 x i32], i32, i32, i32, i32, ptr, i32, ptr, ptr, i32, i32, i32, double, i32, %struct.Vec_Int_t_, ptr, ptr, ptr, ptr, ptr, float, i32, ptr, ptr, ptr, ptr, ptr, ptr, ptr, ptr, ptr, ptr, ptr, ptr, ptr, ptr, ptr, ptr, ptr, ptr, ptr, ptr, ptr }
%struct.Aig_Man_t_ = type { ptr, ptr, ptr, ptr, ptr, ptr, ptr, %struct.Aig_Obj_t_, i32, i32, i32, i32, i32, i32, [7 x i32], i32, ptr, i32, ptr, i32, ptr, i32, i32, i32, ptr, i32, i32, i32, i32, i32, ptr, ptr, i32, ptr, ptr, i32, ptr, ptr, i32, i32, i32, ptr, ptr, ptr, ptr, ptr, ptr, ptr, ptr, ptr, ptr, ptr, ptr, ptr, ptr, i32, ptr, ptr, ptr, ptr, i32, i64, i64, i64, ptr, ptr }
%struct.Aig_Obj_t_ = type { %union.anon, ptr, ptr, i64, i32, i32, %union.anon.0 }
%union.anon = type { ptr }
%union.anon.0 = type { ptr }
%struct.timespec = type { i64, i64 }

@.str.25 = private unnamed_addr constant [5 x i8] c"Time\00", align 1
@.str.31 = private unnamed_addr constant [27 x i8] c"Networks are equivalent.  \00", align 1
@.str.32 = private unnamed_addr constant [5 x i8] c"%s =\00", align 1
@.str.33 = private unnamed_addr constant [11 x i8] c"%9.2f sec\0A\00", align 1
@.str.34 = private unnamed_addr constant [31 x i8] c"Networks are NOT EQUIVALENT.  \00", align 1
@.str.35 = private unnamed_addr constant [26 x i8] c"Networks are UNDECIDED.  \00", align 1

; Function Attrs: nounwind uwtable
define internal i64 @Abc_Clock() #0 {
  %1 = alloca i64, align 8
  %2 = alloca %struct.timespec, align 8
  %3 = alloca i64, align 8
  %4 = call i32 @clock_gettime(i32 noundef 1, ptr noundef %2) #10
  %5 = icmp slt i32 %4, 0
  br i1 %5, label %6, label %7

6:                                                ; preds = %0
  store i64 -1, ptr %1, align 8
  br label %18

7:                                                ; preds = %0
  %8 = getelementptr inbounds %struct.timespec, ptr %2, i32 0, i32 0
  %9 = load i64, ptr %8, align 8
  %10 = mul nsw i64 %9, 1000000
  store i64 %10, ptr %3, align 8
  %11 = getelementptr inbounds %struct.timespec, ptr %2, i32 0, i32 1
  %12 = load i64, ptr %11, align 8
  %13 = mul nsw i64 %12, 1000000
  %14 = sdiv i64 %13, 1000000000
  %15 = load i64, ptr %3, align 8
  %16 = add nsw i64 %15, %14
  store i64 %16, ptr %3, align 8
  %17 = load i64, ptr %3, align 8
  store i64 %17, ptr %1, align 8
  br label %18

18:                                               ; preds = %7, %6
  %19 = load i64, ptr %1, align 8
  ret i64 %19
}

; Function Attrs: nounwind uwtable
define i32 @Abc_NtkDarInduction(ptr noundef %0, i32 noundef %1, i32 noundef %2, i32 noundef %3, i32 noundef %4, i32 noundef %5, i32 noundef %6, i32 noundef %7, i32 noundef %8) #0 {
  %10 = alloca i32, align 4
  %11 = alloca ptr, align 8
  %12 = alloca i32, align 4
  %13 = alloca i32, align 4
  %14 = alloca i32, align 4
  %15 = alloca i32, align 4
  %16 = alloca i32, align 4
  %17 = alloca i32, align 4
  %18 = alloca i32, align 4
  %19 = alloca i32, align 4
  %20 = alloca ptr, align 8
  %21 = alloca i64, align 8
  %22 = alloca i32, align 4
  store ptr %0, ptr %11, align 8
  store i32 %1, ptr %12, align 4
  store i32 %2, ptr %13, align 4
  store i32 %3, ptr %14, align 4
  store i32 %4, ptr %15, align 4
  store i32 %5, ptr %16, align 4
  store i32 %6, ptr %17, align 4
  store i32 %7, ptr %18, align 4
  store i32 %8, ptr %19, align 4
  %23 = call i64 @Abc_Clock()
  store i64 %23, ptr %21, align 8
  %24 = load ptr, ptr %11, align 8
  %25 = call ptr @Abc_NtkToDar(ptr noundef %24, i32 noundef 0, i32 noundef 1)
  store ptr %25, ptr %20, align 8
  %26 = load ptr, ptr %20, align 8
  %27 = icmp eq ptr %26, null
  br i1 %27, label %28, label %29

28:                                               ; preds = %9
  store i32 -1, ptr %10, align 4
  br label %105

29:                                               ; preds = %9
  %30 = load ptr, ptr %20, align 8
  %31 = load i32, ptr %12, align 4
  %32 = load i32, ptr %13, align 4
  %33 = load i32, ptr %14, align 4
  %34 = load i32, ptr %15, align 4
  %35 = load i32, ptr %16, align 4
  %36 = load i32, ptr %17, align 4
  %37 = load i32, ptr %18, align 4
  %38 = load i32, ptr %19, align 4
  %39 = call i32 @Saig_ManInduction(ptr noundef %30, i32 noundef %31, i32 noundef %32, i32 noundef %33, i32 noundef %34, i32 noundef %35, i32 noundef %36, i32 noundef %37, i32 noundef %38)
  store i32 %39, ptr %22, align 4
  %40 = load i32, ptr %22, align 4
  %41 = icmp eq i32 %40, 1
  br i1 %41, label %42, label %49

42:                                               ; preds = %29
  call void (i32, ptr, ...) @Abc_Print(i32 noundef 1, ptr noundef @.str.31)
  call void (i32, ptr, ...) @Abc_Print(i32 noundef 1, ptr noundef @.str.32, ptr noundef @.str.25)
  %43 = call i64 @Abc_Clock()
  %44 = load i64, ptr %21, align 8
  %45 = sub nsw i64 %43, %44
  %46 = sitofp i64 %45 to double
  %47 = fmul double 1.000000e+00, %46
  %48 = fdiv double %47, 1.000000e+06
  call void (i32, ptr, ...) @Abc_Print(i32 noundef 1, ptr noundef @.str.33, double noundef %48)
  br label %67

49:                                               ; preds = %29
  %50 = load i32, ptr %22, align 4
  %51 = icmp eq i32 %50, 0
  br i1 %51, label %52, label %59

52:                                               ; preds = %49
  call void (i32, ptr, ...) @Abc_Print(i32 noundef 1, ptr noundef @.str.34)
  call void (i32, ptr, ...) @Abc_Print(i32 noundef 1, ptr noundef @.str.32, ptr noundef @.str.25)
  %53 = call i64 @Abc_Clock()
  %54 = load i64, ptr %21, align 8
  %55 = sub nsw i64 %53, %54
  %56 = sitofp i64 %55 to double
  %57 = fmul double 1.000000e+00, %56
  %58 = fdiv double %57, 1.000000e+06
  call void (i32, ptr, ...) @Abc_Print(i32 noundef 1, ptr noundef @.str.33, double noundef %58)
  br label %66

59:                                               ; preds = %49
  call void (i32, ptr, ...) @Abc_Print(i32 noundef 1, ptr noundef @.str.35)
  call void (i32, ptr, ...) @Abc_Print(i32 noundef 1, ptr noundef @.str.32, ptr noundef @.str.25)
  %60 = call i64 @Abc_Clock()
  %61 = load i64, ptr %21, align 8
  %62 = sub nsw i64 %60, %61
  %63 = sitofp i64 %62 to double
  %64 = fmul double 1.000000e+00, %63
  %65 = fdiv double %64, 1.000000e+06
  call void (i32, ptr, ...) @Abc_Print(i32 noundef 1, ptr noundef @.str.33, double noundef %65)
  br label %66

66:                                               ; preds = %59, %52
  br label %67

67:                                               ; preds = %66, %42
  %68 = load i32, ptr %17, align 4
  %69 = icmp ne i32 %68, 0
  br i1 %69, label %70, label %102

70:                                               ; preds = %67
  %71 = load ptr, ptr %11, align 8
  %72 = getelementptr inbounds %struct.Abc_Ntk_t_, ptr %71, i32 0, i32 37
  %73 = load ptr, ptr %72, align 8
  %74 = icmp ne ptr %73, null
  br i1 %74, label %75, label %81

75:                                               ; preds = %70
  %76 = load ptr, ptr %11, align 8
  %77 = getelementptr inbounds %struct.Abc_Ntk_t_, ptr %76, i32 0, i32 37
  %78 = load ptr, ptr %77, align 8
  call void @free(ptr noundef %78) #10
  %79 = load ptr, ptr %11, align 8
  %80 = getelementptr inbounds %struct.Abc_Ntk_t_, ptr %79, i32 0, i32 37
  store ptr null, ptr %80, align 8
  br label %82

81:                                               ; preds = %70
  br label %82

82:                                               ; preds = %81, %75
  %83 = load ptr, ptr %11, align 8
  %84 = getelementptr inbounds %struct.Abc_Ntk_t_, ptr %83, i32 0, i32 38
  %85 = load ptr, ptr %84, align 8
  %86 = icmp ne ptr %85, null
  br i1 %86, label %87, label %93

87:                                               ; preds = %82
  %88 = load ptr, ptr %11, align 8
  %89 = getelementptr inbounds %struct.Abc_Ntk_t_, ptr %88, i32 0, i32 38
  %90 = load ptr, ptr %89, align 8
  call void @free(ptr noundef %90) #10
  %91 = load ptr, ptr %11, align 8
  %92 = getelementptr inbounds %struct.Abc_Ntk_t_, ptr %91, i32 0, i32 38
  store ptr null, ptr %92, align 8
  br label %94

93:                                               ; preds = %82
  br label %94

94:                                               ; preds = %93, %87
  %95 = load ptr, ptr %20, align 8
  %96 = getelementptr inbounds %struct.Aig_Man_t_, ptr %95, i32 0, i32 51
  %97 = load ptr, ptr %96, align 8
  %98 = load ptr, ptr %11, align 8
  %99 = getelementptr inbounds %struct.Abc_Ntk_t_, ptr %98, i32 0, i32 38
  store ptr %97, ptr %99, align 8
  %100 = load ptr, ptr %20, align 8
  %101 = getelementptr inbounds %struct.Aig_Man_t_, ptr %100, i32 0, i32 51
  store ptr null, ptr %101, align 8
  br label %102

102:                                              ; preds = %94, %67
  %103 = load ptr, ptr %20, align 8
  call void @Aig_ManStop(ptr noundef %103)
  %104 = load i32, ptr %22, align 4
  store i32 %104, ptr %10, align 4
  br label %105

105:                                              ; preds = %102, %28
  %106 = load i32, ptr %10, align 4
  ret i32 %106
}