; Function Attrs: nounwind uwtable
define noundef i32 @Abc_NtkDarInduction(ptr noundef %0, i32 noundef %1, i32 noundef %2, i32 noundef %3, i32 noundef %4, i32 noundef %5, i32 noundef %6, i32 noundef %7, i32 noundef %8) local_unnamed_addr #1 {
  %10 = alloca %struct.timespec, align 8
  %11 = alloca %struct.timespec, align 8
  %12 = alloca %struct.timespec, align 8
  %13 = alloca %struct.timespec, align 8
  call void @llvm.lifetime.start.p0(i64 16, ptr nonnull %13)
  %14 = call i32 @clock_gettime(i32 noundef 1, ptr noundef nonnull %13) #19
  %15 = icmp slt i32 %14, 0
  br i1 %15, label %Abc_Clock.exit, label %16

16:                                               ; preds = %9
  %17 = load i64, ptr %13, align 8
  %.neg41 = mul i64 %17, -1000000
  %18 = getelementptr inbounds nuw i8, ptr %13, i64 8
  %19 = load i64, ptr %18, align 8
  %.neg = sdiv i64 %19, -1000
  %.neg42 = add i64 %.neg, %.neg41
  br label %Abc_Clock.exit

Abc_Clock.exit:                                   ; preds = %9, %16
  %.0.i.neg = phi i64 [ %.neg42, %16 ], [ 1, %9 ]
  call void @llvm.lifetime.end.p0(i64 16, ptr nonnull %13)
  %20 = call ptr @Abc_NtkToDar(ptr noundef %0, i32 noundef 0, i32 noundef 1)
  %21 = icmp eq ptr %20, null
  br i1 %21, label %70, label %22

22:                                               ; preds = %Abc_Clock.exit
  %23 = call i32 @Saig_ManInduction(ptr noundef nonnull %20, i32 noundef %1, i32 noundef %2, i32 noundef %3, i32 noundef %4, i32 noundef %5, i32 noundef %6, i32 noundef %7, i32 noundef %8) #19
  switch i32 %23, label %44 [
    i32 1, label %24
    i32 0, label %34
  ]

24:                                               ; preds = %22
  call void (i32, ptr, ...) @Abc_Print(i32 poison, ptr noundef nonnull @.str.31)
  call void (i32, ptr, ...) @Abc_Print(i32 poison, ptr noundef nonnull @.str.32, ptr noundef nonnull @.str.25)
  call void @llvm.lifetime.start.p0(i64 16, ptr nonnull %12)
  %25 = call i32 @clock_gettime(i32 noundef 1, ptr noundef nonnull %12) #19
  %26 = icmp slt i32 %25, 0
  br i1 %26, label %Abc_Clock.exit35, label %27

27:                                               ; preds = %24
  %28 = load i64, ptr %12, align 8
  %29 = mul nsw i64 %28, 1000000
  %30 = getelementptr inbounds nuw i8, ptr %12, i64 8
  %31 = load i64, ptr %30, align 8
  %32 = sdiv i64 %31, 1000
  %33 = add nsw i64 %32, %29
  br label %Abc_Clock.exit35

Abc_Clock.exit35:                                 ; preds = %24, %27
  %.0.i34 = phi i64 [ %33, %27 ], [ -1, %24 ]
  call void @llvm.lifetime.end.p0(i64 16, ptr nonnull %12)
  br label %54

34:                                               ; preds = %22
  call void (i32, ptr, ...) @Abc_Print(i32 poison, ptr noundef nonnull @.str.34)
  call void (i32, ptr, ...) @Abc_Print(i32 poison, ptr noundef nonnull @.str.32, ptr noundef nonnull @.str.25)
  call void @llvm.lifetime.start.p0(i64 16, ptr nonnull %11)
  %35 = call i32 @clock_gettime(i32 noundef 1, ptr noundef nonnull %11) #19
  %36 = icmp slt i32 %35, 0
  br i1 %36, label %Abc_Clock.exit37, label %37

37:                                               ; preds = %34
  %38 = load i64, ptr %11, align 8
  %39 = mul nsw i64 %38, 1000000
  %40 = getelementptr inbounds nuw i8, ptr %11, i64 8
  %41 = load i64, ptr %40, align 8
  %42 = sdiv i64 %41, 1000
  %43 = add nsw i64 %42, %39
  br label %Abc_Clock.exit37

Abc_Clock.exit37:                                 ; preds = %34, %37
  %.0.i36 = phi i64 [ %43, %37 ], [ -1, %34 ]
  call void @llvm.lifetime.end.p0(i64 16, ptr nonnull %11)
  br label %54

44:                                               ; preds = %22
  call void (i32, ptr, ...) @Abc_Print(i32 poison, ptr noundef nonnull @.str.35)
  call void (i32, ptr, ...) @Abc_Print(i32 poison, ptr noundef nonnull @.str.32, ptr noundef nonnull @.str.25)
  call void @llvm.lifetime.start.p0(i64 16, ptr nonnull %10)
  %45 = call i32 @clock_gettime(i32 noundef 1, ptr noundef nonnull %10) #19
  %46 = icmp slt i32 %45, 0
  br i1 %46, label %Abc_Clock.exit39, label %47

47:                                               ; preds = %44
  %48 = load i64, ptr %10, align 8
  %49 = mul nsw i64 %48, 1000000
  %50 = getelementptr inbounds nuw i8, ptr %10, i64 8
  %51 = load i64, ptr %50, align 8
  %52 = sdiv i64 %51, 1000
  %53 = add nsw i64 %52, %49
  br label %Abc_Clock.exit39

Abc_Clock.exit39:                                 ; preds = %44, %47
  %.0.i38 = phi i64 [ %53, %47 ], [ -1, %44 ]
  call void @llvm.lifetime.end.p0(i64 16, ptr nonnull %10)
  br label %54

54:                                               ; preds = %Abc_Clock.exit37, %Abc_Clock.exit39, %Abc_Clock.exit35
  %.0.i36.sink = phi i64 [ %.0.i36, %Abc_Clock.exit37 ], [ %.0.i38, %Abc_Clock.exit39 ], [ %.0.i34, %Abc_Clock.exit35 ]
  %55 = add i64 %.0.i.neg, %.0.i36.sink
  %56 = sitofp i64 %55 to double
  %57 = fdiv double %56, 1.000000e+06
  call void (i32, ptr, ...) @Abc_Print(i32 poison, ptr noundef nonnull @.str.33, double noundef %57)
  %.not = icmp eq i32 %6, 0
  br i1 %.not, label %69, label %58

58:                                               ; preds = %54
  %59 = getelementptr inbounds nuw i8, ptr %0, i64 304
  %60 = load ptr, ptr %59, align 8
  %.not32 = icmp eq ptr %60, null
  br i1 %.not32, label %62, label %61

61:                                               ; preds = %58
  call void @free(ptr noundef nonnull %60) #19
  store ptr null, ptr %59, align 8
  br label %62

62:                                               ; preds = %58, %61
  %63 = getelementptr inbounds nuw i8, ptr %0, i64 312
  %64 = load ptr, ptr %63, align 8
  %.not33 = icmp eq ptr %64, null
  br i1 %.not33, label %66, label %65

65:                                               ; preds = %62
  call void @free(ptr noundef nonnull %64) #19
  store ptr null, ptr %63, align 8
  br label %66

66:                                               ; preds = %62, %65
  %67 = getelementptr inbounds nuw i8, ptr %20, i64 408
  %68 = load ptr, ptr %67, align 8
  store ptr %68, ptr %63, align 8
  store ptr null, ptr %67, align 8
  br label %69

69:                                               ; preds = %66, %54
  call void @Aig_ManStop(ptr noundef nonnull %20) #19
  br label %70

70:                                               ; preds = %Abc_Clock.exit, %69
  %.0 = phi i32 [ %23, %69 ], [ -1, %Abc_Clock.exit ]
  ret i32 %.0
}